; Function Attrs: nounwind uwtable
define internal void @PredictorAdd4_SSE2(ptr noundef %0, ptr noundef %1, i32 noundef %2, ptr noalias noundef %3) #2 {
  %invariant.gep = getelementptr i8, ptr %1, i64 -4
  %.not24 = icmp slt i32 %2, 4
  br i1 %.not24, label %._crit_edge, label %.lr.ph.preheader

.lr.ph.preheader:                                 ; preds = %4
  %5 = zext nneg i32 %2 to i64
  br label %.lr.ph

.lr.ph:                                           ; preds = %.lr.ph.preheader, %.lr.ph
  %indvars.iv26 = phi i64 [ 0, %.lr.ph.preheader ], [ %indvars.iv.next27, %.lr.ph ]
  %indvars.iv = phi i64 [ 4, %.lr.ph.preheader ], [ %indvars.iv.next, %.lr.ph ]
  %6 = getelementptr inbounds nuw i32, ptr %0, i64 %indvars.iv26
  %7 = load <16 x i8>, ptr %6, align 1, !tbaa !9
  %gep = getelementptr i32, ptr %invariant.gep, i64 %indvars.iv26
  %8 = load <16 x i8>, ptr %gep, align 1, !tbaa !9
  %9 = add <16 x i8> %8, %7
  %10 = getelementptr inbounds nuw i32, ptr %3, i64 %indvars.iv26
  store <16 x i8> %9, ptr %10, align 1, !tbaa !9
  %indvars.iv.next = add nuw nsw i64 %indvars.iv, 4
  %.not = icmp samesign ugt i64 %indvars.iv.next, %5
  %indvars.iv.next27 = add nuw nsw i64 %indvars.iv26, 4
  br i1 %.not, label %._crit_edge.loopexit, label %.lr.ph, !llvm.loop !15

._crit_edge.loopexit:                             ; preds = %.lr.ph
  %11 = trunc nuw nsw i64 %indvars.iv to i32
  br label %._crit_edge

._crit_edge:                                      ; preds = %._crit_edge.loopexit, %4
  %.0.lcssa = phi i32 [ 0, %4 ], [ %11, %._crit_edge.loopexit ]
  %.not23 = icmp eq i32 %.0.lcssa, %2
  br i1 %.not23, label %19, label %12

12:                                               ; preds = %._crit_edge
  %13 = load ptr, ptr getelementptr inbounds nuw (i8, ptr @VP8LPredictorsAdd_C, i64 32), align 16, !tbaa !3
  %14 = zext nneg i32 %.0.lcssa to i64
  %15 = getelementptr inbounds nuw i32, ptr %0, i64 %14
  %16 = getelementptr inbounds nuw i32, ptr %1, i64 %14
  %17 = sub nsw i32 %2, %.0.lcssa
  %18 = getelementptr inbounds nuw i32, ptr %3, i64 %14
  tail call void %13(ptr noundef %15, ptr noundef %16, i32 noundef %17, ptr noundef %18) #7
  br label %19

19:                                               ; preds = %12, %._crit_edge
  ret void
}